#include <math.h>
#include <stdio.h>
#include <stdlib.h>
#include <string.h>

void main()
{
  char a[100][11],b[100][4];  int p,i=0,j,k,t;
  while(scanf("%s%s",a[i],b[i])!=EOF)   i++;
  for(j=0;j<i;j++)
    {  t=0;
       for(k=1;k<strlen(a[j]);k++)   if(a[j][k]>a[j][t])  t=k;
       for(p=0;p<=t;p++)   printf("%c",a[j][p]);
       for(p=0;p<strlen(b[j]);p++)  printf("%c",b[j][p]);
       for(p=t+1;p<strlen(a[j]);p++)   printf("%c",a[j][p]);
       printf("\n"); 
     }
}
