; ModuleID = '20/1188.c'
source_filename = "20/1188.c"
target datalayout = "e-m:e-p270:32:32-p271:32:32-p272:64:64-i64:64-f80:128-n8:16:32:64-S128"
target triple = "x86_64-pc-linux-gnu"

@.str = private unnamed_addr constant [5 x i8] c"%s%s\00", align 1
@.str.1 = private unnamed_addr constant [3 x i8] c"%c\00", align 1
@.str.2 = private unnamed_addr constant [2 x i8] c"\0A\00", align 1

; Function Attrs: noinline nounwind uwtable
define dso_local void @main() #0 {
  %1 = alloca [100 x [11 x i8]], align 16
  %2 = alloca [100 x [4 x i8]], align 16
  %3 = alloca i32, align 4
  %4 = alloca i32, align 4
  %5 = alloca i32, align 4
  %6 = alloca i32, align 4
  %7 = alloca i32, align 4
  store i32 0, i32* %4, align 4
  br label %8

8:                                                ; preds = %19, %0
  %9 = load i32, i32* %4, align 4
  %10 = sext i32 %9 to i64
  %11 = getelementptr inbounds [100 x [11 x i8]], [100 x [11 x i8]]* %1, i64 0, i64 %10
  %12 = getelementptr inbounds [11 x i8], [11 x i8]* %11, i64 0, i64 0
  %13 = load i32, i32* %4, align 4
  %14 = sext i32 %13 to i64
  %15 = getelementptr inbounds [100 x [4 x i8]], [100 x [4 x i8]]* %2, i64 0, i64 %14
  %16 = getelementptr inbounds [4 x i8], [4 x i8]* %15, i64 0, i64 0
  %17 = call i32 (i8*, ...) @__isoc99_scanf(i8* getelementptr inbounds ([5 x i8], [5 x i8]* @.str, i64 0, i64 0), i8* %12, i8* %16)
  %18 = icmp ne i32 %17, -1
  br i1 %18, label %19, label %22

19:                                               ; preds = %8
  %20 = load i32, i32* %4, align 4
  %21 = add nsw i32 %20, 1
  store i32 %21, i32* %4, align 4
  br label %8

22:                                               ; preds = %8
  store i32 0, i32* %5, align 4
  br label %23

23:                                               ; preds = %129, %22
  %24 = load i32, i32* %5, align 4
  %25 = load i32, i32* %4, align 4
  %26 = icmp slt i32 %24, %25
  br i1 %26, label %27, label %132

27:                                               ; preds = %23
  store i32 0, i32* %7, align 4
  store i32 1, i32* %6, align 4
  br label %28

28:                                               ; preds = %58, %27
  %29 = load i32, i32* %6, align 4
  %30 = sext i32 %29 to i64
  %31 = load i32, i32* %5, align 4
  %32 = sext i32 %31 to i64
  %33 = getelementptr inbounds [100 x [11 x i8]], [100 x [11 x i8]]* %1, i64 0, i64 %32
  %34 = getelementptr inbounds [11 x i8], [11 x i8]* %33, i64 0, i64 0
  %35 = call i64 @strlen(i8* %34) #3
  %36 = icmp ult i64 %30, %35
  br i1 %36, label %37, label %61

37:                                               ; preds = %28
  %38 = load i32, i32* %5, align 4
  %39 = sext i32 %38 to i64
  %40 = getelementptr inbounds [100 x [11 x i8]], [100 x [11 x i8]]* %1, i64 0, i64 %39
  %41 = load i32, i32* %6, align 4
  %42 = sext i32 %41 to i64
  %43 = getelementptr inbounds [11 x i8], [11 x i8]* %40, i64 0, i64 %42
  %44 = load i8, i8* %43, align 1
  %45 = sext i8 %44 to i32
  %46 = load i32, i32* %5, align 4
  %47 = sext i32 %46 to i64
  %48 = getelementptr inbounds [100 x [11 x i8]], [100 x [11 x i8]]* %1, i64 0, i64 %47
  %49 = load i32, i32* %7, align 4
  %50 = sext i32 %49 to i64
  %51 = getelementptr inbounds [11 x i8], [11 x i8]* %48, i64 0, i64 %50
  %52 = load i8, i8* %51, align 1
  %53 = sext i8 %52 to i32
  %54 = icmp sgt i32 %45, %53
  br i1 %54, label %55, label %57

55:                                               ; preds = %37
  %56 = load i32, i32* %6, align 4
  store i32 %56, i32* %7, align 4
  br label %57

57:                                               ; preds = %55, %37
  br label %58

58:                                               ; preds = %57
  %59 = load i32, i32* %6, align 4
  %60 = add nsw i32 %59, 1
  store i32 %60, i32* %6, align 4
  br label %28

61:                                               ; preds = %28
  store i32 0, i32* %3, align 4
  br label %62

62:                                               ; preds = %76, %61
  %63 = load i32, i32* %3, align 4
  %64 = load i32, i32* %7, align 4
  %65 = icmp sle i32 %63, %64
  br i1 %65, label %66, label %79

66:                                               ; preds = %62
  %67 = load i32, i32* %5, align 4
  %68 = sext i32 %67 to i64
  %69 = getelementptr inbounds [100 x [11 x i8]], [100 x [11 x i8]]* %1, i64 0, i64 %68
  %70 = load i32, i32* %3, align 4
  %71 = sext i32 %70 to i64
  %72 = getelementptr inbounds [11 x i8], [11 x i8]* %69, i64 0, i64 %71
  %73 = load i8, i8* %72, align 1
  %74 = sext i8 %73 to i32
  %75 = call i32 (i8*, ...) @printf(i8* getelementptr inbounds ([3 x i8], [3 x i8]* @.str.1, i64 0, i64 0), i32 %74)
  br label %76

76:                                               ; preds = %66
  %77 = load i32, i32* %3, align 4
  %78 = add nsw i32 %77, 1
  store i32 %78, i32* %3, align 4
  br label %62

79:                                               ; preds = %62
  store i32 0, i32* %3, align 4
  br label %80

80:                                               ; preds = %99, %79
  %81 = load i32, i32* %3, align 4
  %82 = sext i32 %81 to i64
  %83 = load i32, i32* %5, align 4
  %84 = sext i32 %83 to i64
  %85 = getelementptr inbounds [100 x [4 x i8]], [100 x [4 x i8]]* %2, i64 0, i64 %84
  %86 = getelementptr inbounds [4 x i8], [4 x i8]* %85, i64 0, i64 0
  %87 = call i64 @strlen(i8* %86) #3
  %88 = icmp ult i64 %82, %87
  br i1 %88, label %89, label %102

89:                                               ; preds = %80
  %90 = load i32, i32* %5, align 4
  %91 = sext i32 %90 to i64
  %92 = getelementptr inbounds [100 x [4 x i8]], [100 x [4 x i8]]* %2, i64 0, i64 %91
  %93 = load i32, i32* %3, align 4
  %94 = sext i32 %93 to i64
  %95 = getelementptr inbounds [4 x i8], [4 x i8]* %92, i64 0, i64 %94
  %96 = load i8, i8* %95, align 1
  %97 = sext i8 %96 to i32
  %98 = call i32 (i8*, ...) @printf(i8* getelementptr inbounds ([3 x i8], [3 x i8]* @.str.1, i64 0, i64 0), i32 %97)
  br label %99

99:                                               ; preds = %89
  %100 = load i32, i32* %3, align 4
  %101 = add nsw i32 %100, 1
  store i32 %101, i32* %3, align 4
  br label %80

102:                                              ; preds = %80
  %103 = load i32, i32* %7, align 4
  %104 = add nsw i32 %103, 1
  store i32 %104, i32* %3, align 4
  br label %105

105:                                              ; preds = %124, %102
  %106 = load i32, i32* %3, align 4
  %107 = sext i32 %106 to i64
  %108 = load i32, i32* %5, align 4
  %109 = sext i32 %108 to i64
  %110 = getelementptr inbounds [100 x [11 x i8]], [100 x [11 x i8]]* %1, i64 0, i64 %109
  %111 = getelementptr inbounds [11 x i8], [11 x i8]* %110, i64 0, i64 0
  %112 = call i64 @strlen(i8* %111) #3
  %113 = icmp ult i64 %107, %112
  br i1 %113, label %114, label %127

114:                                              ; preds = %105
  %115 = load i32, i32* %5, align 4
  %116 = sext i32 %115 to i64
  %117 = getelementptr inbounds [100 x [11 x i8]], [100 x [11 x i8]]* %1, i64 0, i64 %116
  %118 = load i32, i32* %3, align 4
  %119 = sext i32 %118 to i64
  %120 = getelementptr inbounds [11 x i8], [11 x i8]* %117, i64 0, i64 %119
  %121 = load i8, i8* %120, align 1
  %122 = sext i8 %121 to i32
  %123 = call i32 (i8*, ...) @printf(i8* getelementptr inbounds ([3 x i8], [3 x i8]* @.str.1, i64 0, i64 0), i32 %122)
  br label %124

124:                                              ; preds = %114
  %125 = load i32, i32* %3, align 4
  %126 = add nsw i32 %125, 1
  store i32 %126, i32* %3, align 4
  br label %105

127:                                              ; preds = %105
  %128 = call i32 (i8*, ...) @printf(i8* getelementptr inbounds ([2 x i8], [2 x i8]* @.str.2, i64 0, i64 0))
  br label %129

129:                                              ; preds = %127
  %130 = load i32, i32* %5, align 4
  %131 = add nsw i32 %130, 1
  store i32 %131, i32* %5, align 4
  br label %23

132:                                              ; preds = %23
  ret void
}

declare dso_local i32 @__isoc99_scanf(i8*, ...) #1

; Function Attrs: nounwind readonly
declare dso_local i64 @strlen(i8*) #2

declare dso_local i32 @printf(i8*, ...) #1


!llvm.module.flags = !{!0}
!llvm.ident = !{!1}

!0 = !{i32 1, !"wchar_size", i32 4}
!1 = !{!"clang version 10.0.0-4ubuntu1 "}
